Certificate:
    Data:
        Version: 3 (0x2)
        Serial Number: 1 (0x1)
    Signature Algorithm: sha256WithRSAEncryption
        Issuer: C=US, ST=Unset, L=Unset, O=Unset, CN=www.example.com
        Validity
            Not Before: Jun 16 23:02:40 2014 GMT
            Not After : Jun 13 23:02:40 2024 GMT
        Subject: C=US, ST=Unset, O=Unset, CN=www.example.com
        Subject Public Key Info:
            Public Key Algorithm: rsaEncryption
                Public-Key: (2048 bit)
                Modulus:
                    00:c6:9b:d9:d2:79:3b:fd:12:8f:94:ea:06:40:5c:
                    e3:e3:b5:d4:d3:97:b9:15:c7:2e:d3:d9:f6:17:bb:
                    ea:5f:41:28:18:36:f1:c7:03:43:9d:47:23:57:03:
                    d2:64:4b:6b:7b:44:14:ac:58:08:2d:9f:15:c4:47:
                    53:57:9e:04:51:3f:2e:84:2c:2b:c9:c5:06:59:11:
                    05:5e:22:80:9b:49:37:37:97:0d:eb:19:2e:87:d0:
                    d8:ef:34:c5:58:6b:0a:7f:68:9e:b7:b0:e7:f0:6c:
                    a2:27:ac:d0:04:9a:ec:f1:24:a8:cd:a1:37:6a:63:
                    bb:43:34:db:8d:25:15:e2:0b:81:21:c1:67:07:d4:
                    11:3e:da:ab:34:ed:41:9c:78:6c:40:77:bd:ca:9c:
                    b7:ee:73:cd:2b:64:0d:33:7e:b0:03:3c:e9:bd:32:
                    85:7a:a3:52:70:dc:1b:69:24:97:0f:5f:90:3d:8d:
                    3a:70:91:e2:8e:b7:d7:cd:b7:ca:ea:3b:4d:a0:b1:
                    fa:5e:ac:96:84:ed:18:0a:56:da:7b:20:89:6e:d3:
                    ae:33:53:af:04:dc:b0:88:63:eb:cc:85:a6:c4:54:
                    d4:cd:c7:5e:e3:80:bb:9c:83:2b:1b:9d:9f:e6:80:
                    56:10:7d:25:14:45:47:70:2d:df:17:32:7b:c3:87:
                    78:69
                Exponent: 65537 (0x10001)
        X509v3 extensions:
            X509v3 Basic Constraints: 
                CA:FALSE
            X509v3 Subject Key Identifier: 
                39:52:8B:38:FE:8A:6A:81:91:E5:FC:1F:48:57:06:E5:51:9D:69:6D
            X509v3 Authority Key Identifier: 
                keyid:EB:98:8E:39:FA:95:3F:58:9B:C8:39:3A:3B:8A:53:C8:23:B8:83:9C

    Signature Algorithm: sha256WithRSAEncryption
         79:b3:cd:b0:62:7d:99:01:db:78:c2:74:ae:e7:dc:b4:d0:ef:
         8a:50:f8:a2:f1:ff:82:38:2f:bb:cb:b3:3a:7d:32:88:31:ea:
         51:7d:22:d9:09:96:a5:77:be:cd:f9:2d:5d:db:45:64:f6:af:
         6f:d2:d8:f2:e4:49:22:0f:d3:82:85:57:2e:3a:aa:c1:2f:ba:
         eb:56:86:c3:ea:04:b2:ef:32:a9:0d:f7:aa:9f:c5:e8:48:aa:
         ab:c1:12:9c:21:7e:08:13:57:2c:7d:ad:01:37:db:2d:da:3a:
         81:5f:a1:00:e8:25:fb:a9:e7:c8:b1:41:ee:d6:6b:cf:e8:cb:
         8d:67:0f:51:ce:02:ca:76:25:c0:50:05:e1:66:31:71:84:f5:
         10:53:d8:c6:42:71:3a:56:13:61:91:dd:01:51:50:4b:ee:e2:
         37:b5:86:79:8b:62:40:e3:20:61:6c:b3:e4:9f:2d:fe:15:c5:
         04:33:e1:0f:00:86:cf:77:74:09:d6:91:91:77:53:55:69:04:
         24:2c:2a:ca:ab:b6:19:6d:c3:51:5c:e6:a7:57:18:c4:30:e9:
         66:72:2f:00:2b:3f:7f:15:94:45:b0:34:10:b5:17:33:cc:96:
         54:3f:0c:ce:14:bd:a0:8b:e8:11:29:df:73:4d:47:3c:1e:46:
         4d:cc:44:24
-----BEGIN CERTIFICATE-----
MIIDZjCCAk6gAwIBAgIBATANBgkqhkiG9w0BAQsFADBXMQswCQYDVQQGEwJVUzEO
MAwGA1UECAwFVW5zZXQxDjAMBgNVBAcMBVVuc2V0MQ4wDAYDVQQKDAVVbnNldDEY
MBYGA1UEAwwPd3d3LmV4YW1wbGUuY29tMB4XDTE0MDYxNjIzMDI0MFoXDTI0MDYx
MzIzMDI0MFowRzELMAkGA1UEBhMCVVMxDjAMBgNVBAgMBVVuc2V0MQ4wDAYDVQQK
DAVVbnNldDEYMBYGA1UEAwwPd3d3LmV4YW1wbGUuY29tMIIBIjANBgkqhkiG9w0B
AQEFAAOCAQ8AMIIBCgKCAQEAxpvZ0nk7/RKPlOoGQFzj47XU05e5Fccu09n2F7vq
X0EoGDbxxwNDnUcjVwPSZEtre0QUrFgILZ8VxEdTV54EUT8uhCwrycUGWREFXiKA
m0k3N5cN6xkuh9DY7zTFWGsKf2iet7Dn8GyiJ6zQBJrs8SSozaE3amO7QzTbjSUV
4guBIcFnB9QRPtqrNO1BnHhsQHe9ypy37nPNK2QNM36wAzzpvTKFeqNScNwbaSSX
D1+QPY06cJHijrfXzbfK6jtNoLH6XqyWhO0YClbaeyCJbtOuM1OvBNywiGPrzIWm
xFTUzcde44C7nIMrG52f5oBWEH0lFEVHcC3fFzJ7w4d4aQIDAQABo00wSzAJBgNV
HRMEAjAAMB0GA1UdDgQWBBQ5Uos4/opqgZHl/B9IVwblUZ1pbTAfBgNVHSMEGDAW
gBTrmI45+pU/WJvIOTo7ilPII7iDnDANBgkqhkiG9w0BAQsFAAOCAQEAebPNsGJ9
mQHbeMJ0rufctNDvilD4ovH/gjgvu8uzOn0yiDHqUX0i2QmWpXe+zfktXdtFZPav
b9LY8uRJIg/TgoVXLjqqwS+661aGw+oEsu8yqQ33qp/F6Eiqq8ESnCF+CBNXLH2t
ATfbLdo6gV+hAOgl+6nnyLFB7tZrz+jLjWcPUc4CynYlwFAF4WYxcYT1EFPYxkJx
OlYTYZHdAVFQS+7iN7WGeYtiQOMgYWyz5J8t/hXFBDPhDwCGz3d0CdaRkXdTVWkE
JCwqyqu2GW3DUVzmp1cYxDDpZnIvACs/fxWURbA0ELUXM8yWVD8MzhS9oIvoESnf
c01HPB5GTcxEJA==
-----END CERTIFICATE-----
